target datalayout = "e-m:e-p270:32:32-p271:32:32-p272:64:64-i64:64-i128:128-f80:128-n8:16:32:64-S128"
target triple = "x86_64-pc-linux-gnu"

%"class.nix::Settings" = type { %"class.nix::Config", %"class.std::__cxx11::basic_string", %"class.std::__cxx11::basic_string", %"class.std::__cxx11::basic_string", %"class.std::__cxx11::basic_string", %"class.std::__cxx11::basic_string", %"class.std::__cxx11::basic_string", %"class.std::vector", %"class.std::__cxx11::basic_string", %"class.std::__cxx11::basic_string", %"class.std::__cxx11::basic_string", %"class.nix::Setting", %"class.nix::Setting.17", %"class.nix::Setting.17", %"class.nix::Setting.17", i8, [7 x i8], %"class.nix::Setting.21", %"struct.nix::MaxBuildJobsSetting", %"class.nix::Setting.27", %"class.nix::Setting.27", i8, [7 x i8], %"class.nix::Setting", %"class.nix::Setting.29", %"class.nix::Setting.29", %"class.nix::Setting.33", %"class.nix::Setting", %"class.nix::Setting.17", %"class.nix::Setting.17", %"class.nix::Setting.29", %"class.nix::Setting.17", %"class.nix::Setting.17", %"class.nix::Setting.17", %"class.nix::Setting.17", %"class.nix::Setting", %"class.nix::Setting.17", %"class.nix::Setting.27", %"class.nix::Setting.27", %"class.nix::Setting.17", %"class.nix::Setting.17", %"class.nix::Setting.17", %"class.nix::Setting.17", %"class.nix::Setting.21", %"class.nix::Setting.27", %"class.nix::Setting.17", %"class.nix::Setting.17", %"class.nix::Setting.17", %"class.nix::Setting.17", %"class.nix::Setting.40", %"class.nix::Setting.44", %"class.nix::Setting.17", %"class.nix::Setting.17", %"class.nix::Setting", %"class.nix::Setting", %"class.nix::Setting.44", %"class.nix::Setting.17", %"class.nix::OptionalPathSetting", %"class.nix::Setting.33", %"class.nix::Setting.33", %"class.nix::Setting.27", %"class.nix::Setting.17", %"class.nix::Setting.44", %"class.nix::Setting.44", %"class.nix::Setting.33", %"class.nix::Setting.44", %"class.nix::Setting.27", %"class.nix::Setting.27", %"class.nix::Setting.17", %"class.nix::Setting", %"class.nix::Setting", %"class.nix::Setting.27", %"class.nix::Setting", %"class.nix::Setting", %"class.nix::Setting.17", %"class.nix::Setting.17", %"class.nix::Setting.44", %"class.nix::Setting.33", %"class.nix::Setting.21", %"class.nix::Setting.21", %"class.nix::Setting.21", %"struct.nix::PluginFilesSetting", %"class.nix::Setting.21", %"class.nix::Setting.17", %"class.nix::Setting.17", %"class.nix::Setting.60", %"class.nix::Setting" }
%"class.nix::Config" = type { %"class.nix::AbstractConfig", %"class.std::map.2" }
%"class.nix::AbstractConfig" = type { ptr, %"class.std::map" }
%"class.std::map" = type { %"class.std::_Rb_tree" }
%"class.std::_Rb_tree" = type { %"struct.std::_Rb_tree<std::__cxx11::basic_string<char>, std::pair<const std::__cxx11::basic_string<char>, std::__cxx11::basic_string<char>>, std::_Select1st<std::pair<const std::__cxx11::basic_string<char>, std::__cxx11::basic_string<char>>>, std::less<std::__cxx11::basic_string<char>>>::_Rb_tree_impl" }
%"struct.std::_Rb_tree<std::__cxx11::basic_string<char>, std::pair<const std::__cxx11::basic_string<char>, std::__cxx11::basic_string<char>>, std::_Select1st<std::pair<const std::__cxx11::basic_string<char>, std::__cxx11::basic_string<char>>>, std::less<std::__cxx11::basic_string<char>>>::_Rb_tree_impl" = type { %"struct.std::_Rb_tree_key_compare", %"struct.std::_Rb_tree_header" }
%"struct.std::_Rb_tree_key_compare" = type { %"struct.std::less" }
%"struct.std::less" = type { i8 }
%"struct.std::_Rb_tree_header" = type { %"struct.std::_Rb_tree_node_base", i64 }
%"struct.std::_Rb_tree_node_base" = type { i32, ptr, ptr, ptr }
%"class.std::map.2" = type { %"class.std::_Rb_tree.3" }
%"class.std::_Rb_tree.3" = type { %"struct.std::_Rb_tree<std::__cxx11::basic_string<char>, std::pair<const std::__cxx11::basic_string<char>, nix::Config::SettingData>, std::_Select1st<std::pair<const std::__cxx11::basic_string<char>, nix::Config::SettingData>>, std::less<std::__cxx11::basic_string<char>>>::_Rb_tree_impl" }
%"struct.std::_Rb_tree<std::__cxx11::basic_string<char>, std::pair<const std::__cxx11::basic_string<char>, nix::Config::SettingData>, std::_Select1st<std::pair<const std::__cxx11::basic_string<char>, nix::Config::SettingData>>, std::less<std::__cxx11::basic_string<char>>>::_Rb_tree_impl" = type { %"struct.std::_Rb_tree_key_compare", %"struct.std::_Rb_tree_header" }
%"class.std::vector" = type { %"struct.std::_Vector_base" }
%"struct.std::_Vector_base" = type { %"struct.std::_Vector_base<std::__cxx11::basic_string<char>, std::allocator<std::__cxx11::basic_string<char>>>::_Vector_impl" }
%"struct.std::_Vector_base<std::__cxx11::basic_string<char>, std::allocator<std::__cxx11::basic_string<char>>>::_Vector_impl" = type { %"struct.std::_Vector_base<std::__cxx11::basic_string<char>, std::allocator<std::__cxx11::basic_string<char>>>::_Vector_impl_data" }
%"struct.std::_Vector_base<std::__cxx11::basic_string<char>, std::allocator<std::__cxx11::basic_string<char>>>::_Vector_impl_data" = type { ptr, ptr, ptr }
%"class.std::__cxx11::basic_string" = type { %"struct.std::__cxx11::basic_string<char>::_Alloc_hider", i64, %union.anon }
%"struct.std::__cxx11::basic_string<char>::_Alloc_hider" = type { ptr }
%union.anon = type { i64, [8 x i8] }
%"struct.nix::MaxBuildJobsSetting" = type { %"class.nix::BaseSetting.base.26", [7 x i8] }
%"class.nix::BaseSetting.base.26" = type <{ %"class.nix::AbstractSetting", i32, i32, i8 }>
%"class.nix::AbstractSetting" = type { ptr, %"class.std::__cxx11::basic_string", %"class.std::__cxx11::basic_string", %"class.std::set", i32, i8, [3 x i8], %"class.std::optional" }
%"class.std::set" = type { %"class.std::_Rb_tree.13" }
%"class.std::_Rb_tree.13" = type { %"struct.std::_Rb_tree<std::__cxx11::basic_string<char>, std::__cxx11::basic_string<char>, std::_Identity<std::__cxx11::basic_string<char>>, std::less<std::__cxx11::basic_string<char>>>::_Rb_tree_impl" }
%"struct.std::_Rb_tree<std::__cxx11::basic_string<char>, std::__cxx11::basic_string<char>, std::_Identity<std::__cxx11::basic_string<char>>, std::less<std::__cxx11::basic_string<char>>>::_Rb_tree_impl" = type { %"struct.std::_Rb_tree_key_compare", %"struct.std::_Rb_tree_header" }
%"class.std::optional" = type { %"struct.std::_Optional_base" }
%"struct.std::_Optional_base" = type { %"struct.std::_Optional_payload" }
%"struct.std::_Optional_payload" = type { %"struct.std::_Optional_payload_base.base", [3 x i8] }
%"struct.std::_Optional_payload_base.base" = type <{ %"union.std::_Optional_payload_base<nix::ExperimentalFeature>::_Storage", i8 }>
%"union.std::_Optional_payload_base<nix::ExperimentalFeature>::_Storage" = type { i32 }
%"class.nix::Setting.29" = type { %"class.nix::BaseSetting.base.31", [7 x i8] }
%"class.nix::BaseSetting.base.31" = type <{ %"class.nix::AbstractSetting", i64, i64, i8 }>
%"class.nix::Setting.40" = type { %"class.nix::BaseSetting.base.42", [7 x i8] }
%"class.nix::BaseSetting.base.42" = type <{ %"class.nix::AbstractSetting", i32, i32, i8 }>
%"class.nix::OptionalPathSetting" = type { %"class.nix::BaseSetting.base.59", [7 x i8] }
%"class.nix::BaseSetting.base.59" = type <{ %"class.nix::AbstractSetting", %"class.std::optional.49", %"class.std::optional.49", i8 }>
%"class.std::optional.49" = type { %"struct.std::_Optional_base.50" }
%"struct.std::_Optional_base.50" = type { %"struct.std::_Optional_payload.52" }
%"struct.std::_Optional_payload.52" = type { %"struct.std::_Optional_payload.base.56", [7 x i8] }
%"struct.std::_Optional_payload.base.56" = type { %"struct.std::_Optional_payload_base.base.55" }
%"struct.std::_Optional_payload_base.base.55" = type <{ %"union.std::_Optional_payload_base<std::__cxx11::basic_string<char>>::_Storage", i8 }>
%"union.std::_Optional_payload_base<std::__cxx11::basic_string<char>>::_Storage" = type { %"class.std::__cxx11::basic_string" }
%"class.nix::Setting.27" = type { %"class.nix::BaseSetting.base.26", [7 x i8] }
%"class.nix::Setting.44" = type { %"class.nix::BaseSetting.base.46", [7 x i8] }
%"class.nix::BaseSetting.base.46" = type <{ %"class.nix::AbstractSetting", %"class.std::set", %"class.std::set", i8 }>
%"class.nix::Setting.33" = type { %"class.nix::BaseSetting.base.38", [7 x i8] }
%"class.nix::BaseSetting.base.38" = type <{ %"class.nix::AbstractSetting", %"class.std::__cxx11::list", %"class.std::__cxx11::list", i8 }>
%"class.std::__cxx11::list" = type { %"class.std::__cxx11::_List_base" }
%"class.std::__cxx11::_List_base" = type { %"struct.std::__cxx11::_List_base<std::__cxx11::basic_string<char>, std::allocator<std::__cxx11::basic_string<char>>>::_List_impl" }
%"struct.std::__cxx11::_List_base<std::__cxx11::basic_string<char>, std::allocator<std::__cxx11::basic_string<char>>>::_List_impl" = type { %"struct.std::__detail::_List_node_header" }
%"struct.std::__detail::_List_node_header" = type { %"struct.std::__detail::_List_node_base", i64 }
%"struct.std::__detail::_List_node_base" = type { ptr, ptr }
%"struct.nix::PluginFilesSetting" = type { %"class.nix::BaseSetting.base.38", i8, [6 x i8] }
%"class.nix::Setting.21" = type { %"class.nix::BaseSetting.base.23", [7 x i8] }
%"class.nix::BaseSetting.base.23" = type <{ %"class.nix::AbstractSetting", i64, i64, i8 }>
%"class.nix::Setting.17" = type { %"class.nix::BaseSetting.base.19", [5 x i8] }
%"class.nix::BaseSetting.base.19" = type <{ %"class.nix::AbstractSetting", i8, i8, i8 }>
%"class.nix::Setting.60" = type { %"class.nix::BaseSetting.base.62", [7 x i8] }
%"class.nix::BaseSetting.base.62" = type <{ %"class.nix::AbstractSetting", %"class.std::map", %"class.std::map", i8 }>
%"class.nix::Setting" = type { %"class.nix::BaseSetting.base", [7 x i8] }
%"class.nix::BaseSetting.base" = type <{ %"class.nix::AbstractSetting", %"class.std::__cxx11::basic_string", %"class.std::__cxx11::basic_string", i8 }>
%"class.nix::BaseSetting.18" = type <{ %"class.nix::AbstractSetting", i8, i8, i8, [5 x i8] }>

@_ZN3nix8settingsE = external global %"class.nix::Settings", align 8
@_ZZN3nix13useBuildUsersEvE1b = internal global i8 0, align 1
@_ZGVZN3nix13useBuildUsersEvE1b = internal global i64 0, align 8
@.str = private unnamed_addr constant [1 x i8] zeroinitializer, align 1

; Function Attrs: mustprogress nounwind uwtable
define linkonce_odr noundef nonnull align 1 dereferenceable(1) ptr @_ZN3nix11BaseSettingIbEcvRbEv(ptr noundef nonnull align 8 dereferenceable(139) %0) #2 comdat align 2 {
  %2 = alloca ptr, align 8
  store ptr %0, ptr %2, align 8
  %3 = load ptr, ptr %2, align 8
  %4 = getelementptr inbounds %"class.nix::BaseSetting.18", ptr %3, i32 0, i32 1
  ret ptr %4
}

; Function Attrs: mustprogress uwtable
define noundef zeroext i1 @_ZN3nix13useBuildUsersEv() #3 personality ptr @__gxx_personality_v0 {
  %1 = alloca ptr, align 8
  %2 = alloca i32, align 4
  %3 = load atomic i8, ptr @_ZGVZN3nix13useBuildUsersEvE1b acquire, align 8
  %4 = icmp eq i8 %3, 0
  br i1 %4, label %5, label %22, !prof !7

5:                                                ; preds = %0
  %6 = call i32 @__cxa_guard_acquire(ptr @_ZGVZN3nix13useBuildUsersEvE1b) #1
  %7 = icmp ne i32 %6, 0
  br i1 %7, label %8, label %22

8:                                                ; preds = %5
  %9 = invoke noundef zeroext i1 @_ZNK3nix11BaseSettingINSt7__cxx1112basic_stringIcSt11char_traitsIcESaIcEEEEneIA1_cEEbRKT_(ptr noundef nonnull align 8 dereferenceable(201) getelementptr inbounds (%"class.nix::Settings", ptr @_ZN3nix8settingsE, i32 0, i32 35), ptr noundef nonnull align 1 dereferenceable(1) @.str)
          to label %10 unwind label %25

10:                                               ; preds = %8
  br i1 %9, label %16, label %11

11:                                               ; preds = %10
  %12 = invoke noundef nonnull align 1 dereferenceable(1) ptr @_ZN3nix11BaseSettingIbEcvRbEv(ptr noundef nonnull align 8 dereferenceable(139) getelementptr inbounds (%"class.nix::Settings", ptr @_ZN3nix8settingsE, i32 0, i32 36))
          to label %13 unwind label %25

13:                                               ; preds = %11
  %14 = load i8, ptr %12, align 1
  %15 = trunc i8 %14 to i1
  br i1 %15, label %16, label %19

16:                                               ; preds = %13, %10
  %17 = call i32 @getuid() #1
  %18 = icmp eq i32 %17, 0
  br label %19

19:                                               ; preds = %16, %13
  %20 = phi i1 [ false, %13 ], [ %18, %16 ]
  %21 = zext i1 %20 to i8
  store i8 %21, ptr @_ZZN3nix13useBuildUsersEvE1b, align 1
  call void @__cxa_guard_release(ptr @_ZGVZN3nix13useBuildUsersEvE1b) #1
  br label %22

22:                                               ; preds = %19, %5, %0
  %23 = load i8, ptr @_ZZN3nix13useBuildUsersEvE1b, align 1
  %24 = trunc i8 %23 to i1
  ret i1 %24

25:                                               ; preds = %11, %8
  %26 = landingpad { ptr, i32 }
          cleanup
  %27 = extractvalue { ptr, i32 } %26, 0
  store ptr %27, ptr %1, align 8
  %28 = extractvalue { ptr, i32 } %26, 1
  store i32 %28, ptr %2, align 4
  call void @__cxa_guard_abort(ptr @_ZGVZN3nix13useBuildUsersEvE1b) #1
  br label %29

29:                                               ; preds = %25
  %30 = load ptr, ptr %1, align 8
  %31 = load i32, ptr %2, align 4
  %32 = insertvalue { ptr, i32 } poison, ptr %30, 0
  %33 = insertvalue { ptr, i32 } %32, i32 %31, 1
  resume { ptr, i32 } %33
}