; Function Attrs: mustprogress uwtable
define noundef zeroext i1 @_ZN3nix13useBuildUsersEv() local_unnamed_addr #2 personality ptr @__gxx_personality_v0 {
  %1 = load atomic i8, ptr @_ZGVZN3nix13useBuildUsersEvE1b acquire, align 8
  %2 = icmp eq i8 %1, 0
  br i1 %2, label %3, label %17, !prof !23

3:                                                ; preds = %0
  %4 = tail call i32 @__cxa_guard_acquire(ptr nonnull @_ZGVZN3nix13useBuildUsersEvE1b) #23
  %.not = icmp eq i32 %4, 0
  br i1 %.not, label %17, label %5

5:                                                ; preds = %3
  %6 = invoke noundef zeroext i1 @_ZNK3nix11BaseSettingINSt7__cxx1112basic_stringIcSt11char_traitsIcESaIcEEEEneIA1_cEEbRKT_(ptr noundef nonnull align 8 dereferenceable(201) getelementptr inbounds (%"class.nix::Settings", ptr @_ZN3nix8settingsE, i64 0, i32 35), ptr noundef nonnull align 1 dereferenceable(1) @.str)
          to label %7 unwind label %21

7:                                                ; preds = %5
  br i1 %6, label %11, label %8

8:                                                ; preds = %7
  %9 = load i8, ptr getelementptr inbounds (%"class.nix::Settings", ptr @_ZN3nix8settingsE, i64 0, i32 36, i32 0, i32 1), align 8
  %10 = and i8 %9, 1
  %.not1 = icmp eq i8 %10, 0
  br i1 %.not1, label %15, label %11

11:                                               ; preds = %8, %7
  %12 = tail call i32 @getuid() #23
  %13 = icmp eq i32 %12, 0
  %14 = zext i1 %13 to i8
  br label %15

15:                                               ; preds = %11, %8
  %16 = phi i8 [ 0, %8 ], [ %14, %11 ]
  store i8 %16, ptr @_ZZN3nix13useBuildUsersEvE1b, align 1
  tail call void @__cxa_guard_release(ptr nonnull @_ZGVZN3nix13useBuildUsersEvE1b) #23
  br label %17

17:                                               ; preds = %15, %3, %0
  %18 = load i8, ptr @_ZZN3nix13useBuildUsersEvE1b, align 1
  %19 = and i8 %18, 1
  %20 = icmp ne i8 %19, 0
  ret i1 %20

21:                                               ; preds = %5
  %22 = landingpad { ptr, i32 }
          cleanup
  tail call void @__cxa_guard_abort(ptr nonnull @_ZGVZN3nix13useBuildUsersEvE1b) #23
  resume { ptr, i32 } %22
}